(dp0
S'wizzler-00wHcTN0zQiun4xri9pmvX'
p1
(dp2
S'owner'
p3
Vwizzler
p4
sS'added'
p5
cdatetime
datetime
p6
(S'\x07\xdf\x05\x05\n44\n\xc9\xb8'
p7
tp8
Rp9
sS'id'
p10
V00wHcTN0zQiun4xri9pmvX
p11
sS'name'
p12
VMovie Soundtrack Masterpieces
p13
ssS'bryconc-0ddrohhAuv4WVC1GNqX9nc'
p14
(dp15
g3
Vbryconc
p16
sg5
g6
(S"\x07\xdf\x05\x05\n2'\x0e[\xc8"
p17
tp18
Rp19
sg10
V0ddrohhAuv4WVC1GNqX9nc
p20
sg12
VMovie Test
p21
ssS'bryconc-4yumoVCxw7K4roD5POtqCP'
p22
(dp23
S'owner'
p24
Vbryconc
p25
sS'added'
p26
g6
(S'\x07\xdf\x05\x05\r\x14\x1e\x0by\x80'
p27
tp28
Rp29
sS'id'
p30
V4yumoVCxw7K4roD5POtqCP
p31
sS'name'
p32
VDisney Music
p33
ssS'1139683356-6sNDAFPubg3k4CuyH1fqrR'
p34
(dp35
S'owner'
p36
V1139683356
p37
sS'added'
p38
g6
(S'\x07\xdf\x05\x05\r\x0e\x06\x05\x05('
p39
tp40
Rp41
sS'id'
p42
V6sNDAFPubg3k4CuyH1fqrR
p43
sS'name'
p44
VMovie Soundtracks -Themes / Epic Music (Classical/Instrumental)
p45
ssS'george_spv-6nhiBJot8yHf2BHoRrBUmJ'
p46
(dp47
S'owner'
p48
Vgeorge_spv
p49
sS'added'
p50
g6
(S'\x07\xdf\x05\x07\x17\x15\x10\x0c)H'
p51
tp52
Rp53
sS'id'
p54
V6nhiBJot8yHf2BHoRrBUmJ
p55
sS'name'
p56
VGamers Soundtrack - Video Games OST
p57
ss.